; Function Attrs: nounwind uwtable
define internal void @_Clone(ptr noundef captures(none) %0) #0 {
  %2 = getelementptr inbounds nuw i8, ptr %0, i64 592
  %3 = load ptr, ptr %2, align 8
  %4 = tail call ptr @pg_malloc(i64 noundef 24) #7
  store ptr %4, ptr %2, align 8
  tail call void @llvm.memcpy.p0.p0.i64(ptr noundef nonnull align 1 dereferenceable(24) %4, ptr noundef nonnull align 8 dereferenceable(24) %3, i64 24, i1 false)
  %5 = load ptr, ptr %2, align 8
  %6 = load ptr, ptr %5, align 8
  %.not = icmp eq ptr %6, null
  br i1 %.not, label %8, label %7

7:                                                ; preds = %1
  tail call void (i32, i32, ptr, ...) @pg_log_generic(i32 noundef 4, i32 noundef 0, ptr noundef nonnull @.str.25) #7
  tail call void @exit_nicely(i32 noundef 1) #8
  unreachable

8:                                                ; preds = %1
  ret void
}